target datalayout = "e-m:e-p270:32:32-p271:32:32-p272:64:64-i64:64-i128:128-f80:128-n8:16:32:64-S128"
target triple = "x86_64-pc-linux-gnu"

%struct.mbedtls_pk_context = type { ptr, ptr }
%struct.mbedtls_pem_context = type { ptr, i64, ptr }

@.str = private unnamed_addr constant [131 x i8] c"generated/home/dtcxzyw/WorkSpace/Projects/compilers/llvm-opt-benchmark/bench/duckdb/duckdb/third_party/mbedtls/library/pkparse.cpp\00", align 1
@.str.5 = private unnamed_addr constant [31 x i8] c"-----BEGIN RSA PUBLIC KEY-----\00", align 1
@.str.6 = private unnamed_addr constant [29 x i8] c"-----END RSA PUBLIC KEY-----\00", align 1
@.str.7 = private unnamed_addr constant [27 x i8] c"-----BEGIN PUBLIC KEY-----\00", align 1
@.str.8 = private unnamed_addr constant [25 x i8] c"-----END PUBLIC KEY-----\00", align 1

; Function Attrs: inlinehint mustprogress nounwind uwtable
define internal noundef i32 @_ZL17mbedtls_error_addiiPKci(i32 noundef %0, i32 noundef %1, ptr noundef %2, i32 noundef %3) #3 {
  %5 = alloca i32, align 4
  %6 = alloca i32, align 4
  %7 = alloca ptr, align 8
  %8 = alloca i32, align 4
  store i32 %0, ptr %5, align 4, !tbaa !12
  store i32 %1, ptr %6, align 4, !tbaa !12
  store ptr %2, ptr %7, align 8, !tbaa !8
  store i32 %3, ptr %8, align 4, !tbaa !12
  %9 = load i32, ptr %5, align 4, !tbaa !12
  %10 = load i32, ptr %6, align 4, !tbaa !12
  %11 = add nsw i32 %9, %10
  ret i32 %11
}

; Function Attrs: inlinehint mustprogress nounwind uwtable
define internal noundef ptr @_ZL14mbedtls_pk_rsa18mbedtls_pk_context(ptr %0, ptr %1) #3 {
  %3 = alloca %struct.mbedtls_pk_context, align 8
  %4 = getelementptr inbounds nuw { ptr, ptr }, ptr %3, i32 0, i32 0
  store ptr %0, ptr %4, align 8
  %5 = getelementptr inbounds nuw { ptr, ptr }, ptr %3, i32 0, i32 1
  store ptr %1, ptr %5, align 8
  %6 = getelementptr inbounds nuw %struct.mbedtls_pk_context, ptr %3, i32 0, i32 1
  %7 = load ptr, ptr %6, align 8, !tbaa !29
  ret ptr %7
}

; Function Attrs: mustprogress uwtable
define hidden i32 @mbedtls_pk_parse_public_key(ptr noundef %0, ptr noundef %1, i64 noundef %2) #0 {
  %4 = alloca i32, align 4
  %5 = alloca ptr, align 8
  %6 = alloca ptr, align 8
  %7 = alloca i64, align 8
  %8 = alloca i32, align 4
  %9 = alloca ptr, align 8
  %10 = alloca ptr, align 8
  %11 = alloca i64, align 8
  %12 = alloca %struct.mbedtls_pem_context, align 8
  %13 = alloca i32, align 4
  %14 = alloca %struct.mbedtls_pk_context, align 8
  %15 = alloca %struct.mbedtls_pk_context, align 8
  store ptr %0, ptr %5, align 8, !tbaa !10
  store ptr %1, ptr %6, align 8, !tbaa !8
  store i64 %2, ptr %7, align 8, !tbaa !16
  call void @llvm.lifetime.start.p0(i64 4, ptr %8) #6
  store i32 -110, ptr %8, align 4, !tbaa !12
  call void @llvm.lifetime.start.p0(i64 8, ptr %9) #6
  call void @llvm.lifetime.start.p0(i64 8, ptr %10) #6
  call void @llvm.lifetime.start.p0(i64 8, ptr %11) #6
  call void @llvm.lifetime.start.p0(i64 24, ptr %12) #6
  br label %16

16:                                               ; preds = %3
  br label %17

17:                                               ; preds = %16
  br label %18

18:                                               ; preds = %17
  %19 = load i64, ptr %7, align 8, !tbaa !16
  %20 = icmp eq i64 %19, 0
  br i1 %20, label %21, label %22

21:                                               ; preds = %18
  store i32 -15616, ptr %4, align 4
  store i32 1, ptr %13, align 4
  br label %149

22:                                               ; preds = %18
  br label %23

23:                                               ; preds = %22
  br label %24

24:                                               ; preds = %23
  br label %25

25:                                               ; preds = %24
  call void @mbedtls_pem_init(ptr noundef %12)
  %26 = load ptr, ptr %6, align 8, !tbaa !8
  %27 = load i64, ptr %7, align 8, !tbaa !16
  %28 = sub i64 %27, 1
  %29 = getelementptr inbounds nuw i8, ptr %26, i64 %28
  %30 = load i8, ptr %29, align 1, !tbaa !31
  %31 = zext i8 %30 to i32
  %32 = icmp ne i32 %31, 0
  br i1 %32, label %33, label %34

33:                                               ; preds = %25
  store i32 -4224, ptr %8, align 4, !tbaa !12
  br label %37

34:                                               ; preds = %25
  %35 = load ptr, ptr %6, align 8, !tbaa !8
  %36 = call i32 @mbedtls_pem_read_buffer(ptr noundef %12, ptr noundef @.str.5, ptr noundef @.str.6, ptr noundef %35, ptr noundef null, i64 noundef 0, ptr noundef %11)
  store i32 %36, ptr %8, align 4, !tbaa !12
  br label %37

37:                                               ; preds = %34, %33
  %38 = load i32, ptr %8, align 4, !tbaa !12
  %39 = icmp eq i32 %38, 0
  br i1 %39, label %40, label %70

40:                                               ; preds = %37
  %41 = getelementptr inbounds nuw %struct.mbedtls_pem_context, ptr %12, i32 0, i32 0
  %42 = load ptr, ptr %41, align 8, !tbaa !32
  store ptr %42, ptr %9, align 8, !tbaa !8
  %43 = call ptr @mbedtls_pk_info_from_type(i32 noundef 1)
  store ptr %43, ptr %10, align 8, !tbaa !18
  %44 = icmp eq ptr %43, null
  br i1 %44, label %45, label %46

45:                                               ; preds = %40
  store i32 -15488, ptr %4, align 4
  store i32 1, ptr %13, align 4
  br label %149

46:                                               ; preds = %40
  %47 = load ptr, ptr %5, align 8, !tbaa !10
  %48 = load ptr, ptr %10, align 8, !tbaa !18
  %49 = call i32 @mbedtls_pk_setup(ptr noundef %47, ptr noundef %48)
  store i32 %49, ptr %8, align 4, !tbaa !12
  %50 = icmp ne i32 %49, 0
  br i1 %50, label %51, label %53

51:                                               ; preds = %46
  %52 = load i32, ptr %8, align 4, !tbaa !12
  store i32 %52, ptr %4, align 4
  store i32 1, ptr %13, align 4
  br label %149

53:                                               ; preds = %46
  %54 = load ptr, ptr %9, align 8, !tbaa !8
  %55 = getelementptr inbounds nuw %struct.mbedtls_pem_context, ptr %12, i32 0, i32 1
  %56 = load i64, ptr %55, align 8, !tbaa !34
  %57 = getelementptr inbounds nuw i8, ptr %54, i64 %56
  %58 = load ptr, ptr %5, align 8, !tbaa !10
  call void @llvm.memcpy.p0.p0.i64(ptr align 8 %14, ptr align 8 %58, i64 16, i1 false), !tbaa.struct !20
  %59 = getelementptr inbounds nuw { ptr, ptr }, ptr %14, i32 0, i32 0
  %60 = load ptr, ptr %59, align 8
  %61 = getelementptr inbounds nuw { ptr, ptr }, ptr %14, i32 0, i32 1
  %62 = load ptr, ptr %61, align 8
  %63 = call noundef ptr @_ZL14mbedtls_pk_rsa18mbedtls_pk_context(ptr %60, ptr %62)
  %64 = call noundef i32 @_ZL16pk_get_rsapubkeyPPhPKhP19mbedtls_rsa_context(ptr noundef %9, ptr noundef %57, ptr noundef %63)
  store i32 %64, ptr %8, align 4, !tbaa !12
  %65 = icmp ne i32 %64, 0
  br i1 %65, label %66, label %68

66:                                               ; preds = %53
  %67 = load ptr, ptr %5, align 8, !tbaa !10
  call void @mbedtls_pk_free(ptr noundef %67)
  br label %68

68:                                               ; preds = %66, %53
  call void @mbedtls_pem_free(ptr noundef %12)
  %69 = load i32, ptr %8, align 4, !tbaa !12
  store i32 %69, ptr %4, align 4
  store i32 1, ptr %13, align 4
  br label %149

70:                                               ; preds = %37
  %71 = load i32, ptr %8, align 4, !tbaa !12
  %72 = icmp ne i32 %71, -4224
  br i1 %72, label %73, label %75

73:                                               ; preds = %70
  call void @mbedtls_pem_free(ptr noundef %12)
  %74 = load i32, ptr %8, align 4, !tbaa !12
  store i32 %74, ptr %4, align 4
  store i32 1, ptr %13, align 4
  br label %149

75:                                               ; preds = %70
  br label %76

76:                                               ; preds = %75
  %77 = load ptr, ptr %6, align 8, !tbaa !8
  %78 = load i64, ptr %7, align 8, !tbaa !16
  %79 = sub i64 %78, 1
  %80 = getelementptr inbounds nuw i8, ptr %77, i64 %79
  %81 = load i8, ptr %80, align 1, !tbaa !31
  %82 = zext i8 %81 to i32
  %83 = icmp ne i32 %82, 0
  br i1 %83, label %84, label %85

84:                                               ; preds = %76
  store i32 -4224, ptr %8, align 4, !tbaa !12
  br label %88

85:                                               ; preds = %76
  %86 = load ptr, ptr %6, align 8, !tbaa !8
  %87 = call i32 @mbedtls_pem_read_buffer(ptr noundef %12, ptr noundef @.str.7, ptr noundef @.str.8, ptr noundef %86, ptr noundef null, i64 noundef 0, ptr noundef %11)
  store i32 %87, ptr %8, align 4, !tbaa !12
  br label %88

88:                                               ; preds = %85, %84
  %89 = load i32, ptr %8, align 4, !tbaa !12
  %90 = icmp eq i32 %89, 0
  br i1 %90, label %91, label %101

91:                                               ; preds = %88
  %92 = getelementptr inbounds nuw %struct.mbedtls_pem_context, ptr %12, i32 0, i32 0
  %93 = load ptr, ptr %92, align 8, !tbaa !32
  store ptr %93, ptr %9, align 8, !tbaa !8
  %94 = load ptr, ptr %9, align 8, !tbaa !8
  %95 = getelementptr inbounds nuw %struct.mbedtls_pem_context, ptr %12, i32 0, i32 1
  %96 = load i64, ptr %95, align 8, !tbaa !34
  %97 = getelementptr inbounds nuw i8, ptr %94, i64 %96
  %98 = load ptr, ptr %5, align 8, !tbaa !10
  %99 = call i32 @mbedtls_pk_parse_subpubkey(ptr noundef %9, ptr noundef %97, ptr noundef %98)
  store i32 %99, ptr %8, align 4, !tbaa !12
  call void @mbedtls_pem_free(ptr noundef %12)
  %100 = load i32, ptr %8, align 4, !tbaa !12
  store i32 %100, ptr %4, align 4
  store i32 1, ptr %13, align 4
  br label %149

101:                                              ; preds = %88
  %102 = load i32, ptr %8, align 4, !tbaa !12
  %103 = icmp ne i32 %102, -4224
  br i1 %103, label %104, label %106

104:                                              ; preds = %101
  call void @mbedtls_pem_free(ptr noundef %12)
  %105 = load i32, ptr %8, align 4, !tbaa !12
  store i32 %105, ptr %4, align 4
  store i32 1, ptr %13, align 4
  br label %149

106:                                              ; preds = %101
  br label %107

107:                                              ; preds = %106
  call void @mbedtls_pem_free(ptr noundef %12)
  %108 = call ptr @mbedtls_pk_info_from_type(i32 noundef 1)
  store ptr %108, ptr %10, align 8, !tbaa !18
  %109 = icmp eq ptr %108, null
  br i1 %109, label %110, label %111

110:                                              ; preds = %107
  store i32 -15488, ptr %4, align 4
  store i32 1, ptr %13, align 4
  br label %149

111:                                              ; preds = %107
  %112 = load ptr, ptr %5, align 8, !tbaa !10
  %113 = load ptr, ptr %10, align 8, !tbaa !18
  %114 = call i32 @mbedtls_pk_setup(ptr noundef %112, ptr noundef %113)
  store i32 %114, ptr %8, align 4, !tbaa !12
  %115 = icmp ne i32 %114, 0
  br i1 %115, label %116, label %118

116:                                              ; preds = %111
  %117 = load i32, ptr %8, align 4, !tbaa !12
  store i32 %117, ptr %4, align 4
  store i32 1, ptr %13, align 4
  br label %149

118:                                              ; preds = %111
  %119 = load ptr, ptr %6, align 8, !tbaa !8
  store ptr %119, ptr %9, align 8, !tbaa !8
  %120 = load ptr, ptr %9, align 8, !tbaa !8
  %121 = load i64, ptr %7, align 8, !tbaa !16
  %122 = getelementptr inbounds nuw i8, ptr %120, i64 %121
  %123 = load ptr, ptr %5, align 8, !tbaa !10
  call void @llvm.memcpy.p0.p0.i64(ptr align 8 %15, ptr align 8 %123, i64 16, i1 false), !tbaa.struct !20
  %124 = getelementptr inbounds nuw { ptr, ptr }, ptr %15, i32 0, i32 0
  %125 = load ptr, ptr %124, align 8
  %126 = getelementptr inbounds nuw { ptr, ptr }, ptr %15, i32 0, i32 1
  %127 = load ptr, ptr %126, align 8
  %128 = call noundef ptr @_ZL14mbedtls_pk_rsa18mbedtls_pk_context(ptr %125, ptr %127)
  %129 = call noundef i32 @_ZL16pk_get_rsapubkeyPPhPKhP19mbedtls_rsa_context(ptr noundef %9, ptr noundef %122, ptr noundef %128)
  store i32 %129, ptr %8, align 4, !tbaa !12
  %130 = load i32, ptr %8, align 4, !tbaa !12
  %131 = icmp eq i32 %130, 0
  br i1 %131, label %132, label %134

132:                                              ; preds = %118
  %133 = load i32, ptr %8, align 4, !tbaa !12
  store i32 %133, ptr %4, align 4
  store i32 1, ptr %13, align 4
  br label %149

134:                                              ; preds = %118
  %135 = load ptr, ptr %5, align 8, !tbaa !10
  call void @mbedtls_pk_free(ptr noundef %135)
  %136 = load i32, ptr %8, align 4, !tbaa !12
  %137 = call noundef i32 @_ZL17mbedtls_error_addiiPKci(i32 noundef -15104, i32 noundef -98, ptr noundef @.str, i32 noundef 1517)
  %138 = icmp ne i32 %136, %137
  br i1 %138, label %139, label %141

139:                                              ; preds = %134
  %140 = load i32, ptr %8, align 4, !tbaa !12
  store i32 %140, ptr %4, align 4
  store i32 1, ptr %13, align 4
  br label %149

141:                                              ; preds = %134
  %142 = load ptr, ptr %6, align 8, !tbaa !8
  store ptr %142, ptr %9, align 8, !tbaa !8
  %143 = load ptr, ptr %9, align 8, !tbaa !8
  %144 = load i64, ptr %7, align 8, !tbaa !16
  %145 = getelementptr inbounds nuw i8, ptr %143, i64 %144
  %146 = load ptr, ptr %5, align 8, !tbaa !10
  %147 = call i32 @mbedtls_pk_parse_subpubkey(ptr noundef %9, ptr noundef %145, ptr noundef %146)
  store i32 %147, ptr %8, align 4, !tbaa !12
  %148 = load i32, ptr %8, align 4, !tbaa !12
  store i32 %148, ptr %4, align 4
  store i32 1, ptr %13, align 4
  br label %149

149:                                              ; preds = %141, %139, %132, %116, %110, %104, %91, %73, %68, %51, %45, %21
  call void @llvm.lifetime.end.p0(i64 24, ptr %12) #6
  call void @llvm.lifetime.end.p0(i64 8, ptr %11) #6
  call void @llvm.lifetime.end.p0(i64 8, ptr %10) #6
  call void @llvm.lifetime.end.p0(i64 8, ptr %9) #6
  call void @llvm.lifetime.end.p0(i64 4, ptr %8) #6
  %150 = load i32, ptr %4, align 4
  ret i32 %150
}