; Function Attrs: mustprogress uwtable
define hidden i32 @mbedtls_pk_parse_public_key(ptr noundef %0, ptr noundef %1, i64 noundef %2) local_unnamed_addr #0 {
  %4 = alloca ptr, align 8
  %5 = alloca i64, align 8
  %6 = alloca %struct.mbedtls_pem_context, align 8
  call void @llvm.lifetime.start.p0(i64 8, ptr nonnull %4) #4
  call void @llvm.lifetime.start.p0(i64 8, ptr nonnull %5) #4
  call void @llvm.lifetime.start.p0(i64 24, ptr nonnull %6) #4
  %7 = icmp eq i64 %2, 0
  br i1 %7, label %49, label %8

8:                                                ; preds = %3
  call void @mbedtls_pem_init(ptr noundef nonnull %6)
  %9 = getelementptr i8, ptr %1, i64 %2
  %10 = getelementptr i8, ptr %9, i64 -1
  %11 = load i8, ptr %10, align 1, !tbaa !17
  %.not = icmp eq i8 %11, 0
  br i1 %.not, label %12, label %.thread56

12:                                               ; preds = %8
  %13 = call i32 @mbedtls_pem_read_buffer(ptr noundef nonnull %6, ptr noundef nonnull @.str.5, ptr noundef nonnull @.str.6, ptr noundef nonnull %1, ptr noundef null, i64 noundef 0, ptr noundef nonnull %5)
  switch i32 %13, label %28 [
    i32 0, label %14
    i32 -4224, label %29
  ]

14:                                               ; preds = %12
  %15 = load ptr, ptr %6, align 8, !tbaa !18
  store ptr %15, ptr %4, align 8, !tbaa !7
  %16 = call ptr @mbedtls_pk_info_from_type(i32 noundef 1)
  %17 = icmp eq ptr %16, null
  br i1 %17, label %49, label %18

18:                                               ; preds = %14
  %19 = call i32 @mbedtls_pk_setup(ptr noundef %0, ptr noundef nonnull %16)
  %.not51 = icmp eq i32 %19, 0
  br i1 %.not51, label %20, label %49

20:                                               ; preds = %18
  %21 = load ptr, ptr %4, align 8, !tbaa !7
  %22 = getelementptr inbounds nuw i8, ptr %6, i64 8
  %23 = load i64, ptr %22, align 8, !tbaa !20
  %24 = getelementptr inbounds nuw i8, ptr %21, i64 %23
  %.sroa.22.0..sroa_idx = getelementptr inbounds nuw i8, ptr %0, i64 8
  %.sroa.22.0.copyload = load ptr, ptr %.sroa.22.0..sroa_idx, align 8, !tbaa !16
  %25 = call fastcc noundef i32 @_ZL16pk_get_rsapubkeyPPhPKhP19mbedtls_rsa_context(ptr noundef nonnull %4, ptr noundef %24, ptr noundef %.sroa.22.0.copyload)
  %.not52 = icmp eq i32 %25, 0
  br i1 %.not52, label %27, label %26

26:                                               ; preds = %20
  call void @mbedtls_pk_free(ptr noundef nonnull %0)
  br label %27

27:                                               ; preds = %26, %20
  call void @mbedtls_pem_free(ptr noundef nonnull %6)
  br label %49

28:                                               ; preds = %12
  call void @mbedtls_pem_free(ptr noundef nonnull %6)
  br label %49

29:                                               ; preds = %12
  %.pr = load i8, ptr %10, align 1, !tbaa !17
  %.not47 = icmp eq i8 %.pr, 0
  br i1 %.not47, label %30, label %.thread56

30:                                               ; preds = %29
  %31 = call i32 @mbedtls_pem_read_buffer(ptr noundef nonnull %6, ptr noundef nonnull @.str.7, ptr noundef nonnull @.str.8, ptr noundef nonnull %1, ptr noundef null, i64 noundef 0, ptr noundef nonnull %5)
  switch i32 %31, label %38 [
    i32 0, label %32
    i32 -4224, label %.thread56
  ]

32:                                               ; preds = %30
  %33 = load ptr, ptr %6, align 8, !tbaa !18
  store ptr %33, ptr %4, align 8, !tbaa !7
  %34 = getelementptr inbounds nuw i8, ptr %6, i64 8
  %35 = load i64, ptr %34, align 8, !tbaa !20
  %36 = getelementptr inbounds nuw i8, ptr %33, i64 %35
  %37 = call i32 @mbedtls_pk_parse_subpubkey(ptr noundef nonnull %4, ptr noundef %36, ptr noundef %0)
  call void @mbedtls_pem_free(ptr noundef nonnull %6)
  br label %49

38:                                               ; preds = %30
  call void @mbedtls_pem_free(ptr noundef nonnull %6)
  br label %49

.thread56:                                        ; preds = %8, %29, %30
  call void @mbedtls_pem_free(ptr noundef nonnull %6)
  %39 = call ptr @mbedtls_pk_info_from_type(i32 noundef 1)
  %40 = icmp eq ptr %39, null
  br i1 %40, label %49, label %41

41:                                               ; preds = %.thread56
  %42 = call i32 @mbedtls_pk_setup(ptr noundef %0, ptr noundef nonnull %39)
  %.not49 = icmp eq i32 %42, 0
  br i1 %.not49, label %43, label %49

43:                                               ; preds = %41
  store ptr %1, ptr %4, align 8, !tbaa !7
  %.sroa.2.0..sroa_idx = getelementptr inbounds nuw i8, ptr %0, i64 8
  %.sroa.2.0.copyload = load ptr, ptr %.sroa.2.0..sroa_idx, align 8, !tbaa !16
  %44 = call fastcc noundef i32 @_ZL16pk_get_rsapubkeyPPhPKhP19mbedtls_rsa_context(ptr noundef nonnull %4, ptr noundef nonnull %9, ptr noundef %.sroa.2.0.copyload)
  %45 = icmp eq i32 %44, 0
  br i1 %45, label %49, label %46

46:                                               ; preds = %43
  call void @mbedtls_pk_free(ptr noundef nonnull %0)
  %.not50 = icmp eq i32 %44, -15202
  br i1 %.not50, label %47, label %49

47:                                               ; preds = %46
  store ptr %1, ptr %4, align 8, !tbaa !7
  %48 = call i32 @mbedtls_pk_parse_subpubkey(ptr noundef nonnull %4, ptr noundef nonnull %9, ptr noundef nonnull %0)
  br label %49

49:                                               ; preds = %46, %43, %41, %.thread56, %18, %14, %3, %47, %38, %32, %28, %27
  %.0 = phi i32 [ %25, %27 ], [ %13, %28 ], [ %37, %32 ], [ %31, %38 ], [ %48, %47 ], [ -15616, %3 ], [ -15488, %14 ], [ %19, %18 ], [ -15488, %.thread56 ], [ %42, %41 ], [ 0, %43 ], [ %44, %46 ]
  call void @llvm.lifetime.end.p0(i64 24, ptr nonnull %6) #4
  call void @llvm.lifetime.end.p0(i64 8, ptr nonnull %5) #4
  call void @llvm.lifetime.end.p0(i64 8, ptr nonnull %4) #4
  ret i32 %.0
}